target datalayout = "e-m:e-p270:32:32-p271:32:32-p272:64:64-i64:64-i128:128-f80:128-n8:16:32:64-S128"
target triple = "x86_64-pc-linux-gnu"

%struct.DdNode = type { i32, i32, ptr, %union.anon, i64 }
%union.anon = type { %struct.DdChildren }
%struct.DdChildren = type { ptr, ptr }
%struct.DdManager = type { %struct.DdNode, ptr, ptr, ptr, ptr, ptr, ptr, ptr, i32, i32, double, double, double, i32, i32, i32, i32, i32, i32, ptr, ptr, %struct.DdSubtable, i32, i32, i32, i32, i32, i32, i32, double, i32, i32, i32, ptr, i64, double, i32, ptr, ptr, ptr, ptr, ptr, ptr, ptr, i32, ptr, ptr, ptr, ptr, ptr, ptr, i32, i32, i32, double, i32, i32, i32, i32, double, double, i32, i32, i32, i32, i32, i32, i32, i32, i32, ptr, ptr, i32, i32, i32, i32, i32, i32, ptr, ptr, ptr, ptr, ptr, ptr, ptr, ptr, i32, i64, i64, i64, i32, i64, i64, double, double, double, double, double, double, i32, ptr, ptr, i64 }
%struct.DdSubtable = type { ptr, i32, i32, i32, i32, i32, i32, i32, i32, i32, i32, i32 }
%struct.timespec = type { i64, i64 }

; Function Attrs: inlinehint nounwind uwtable
define internal i64 @Abc_Clock() #3 {
  %1 = alloca i64, align 8
  %2 = alloca %struct.timespec, align 8
  %3 = alloca i32, align 4
  %4 = alloca i64, align 8
  call void @llvm.lifetime.start.p0(i64 16, ptr %2) #5
  %5 = call i32 @clock_gettime(i32 noundef 1, ptr noundef %2) #5
  %6 = icmp slt i32 %5, 0
  br i1 %6, label %7, label %8

7:                                                ; preds = %0
  store i64 -1, ptr %1, align 8
  store i32 1, ptr %3, align 4
  br label %19

8:                                                ; preds = %0
  call void @llvm.lifetime.start.p0(i64 8, ptr %4) #5
  %9 = getelementptr inbounds nuw %struct.timespec, ptr %2, i32 0, i32 0
  %10 = load i64, ptr %9, align 8, !tbaa !48
  %11 = mul nsw i64 %10, 1000000
  store i64 %11, ptr %4, align 8, !tbaa !50
  %12 = getelementptr inbounds nuw %struct.timespec, ptr %2, i32 0, i32 1
  %13 = load i64, ptr %12, align 8, !tbaa !51
  %14 = mul nsw i64 %13, 1000000
  %15 = sdiv i64 %14, 1000000000
  %16 = load i64, ptr %4, align 8, !tbaa !50
  %17 = add nsw i64 %16, %15
  store i64 %17, ptr %4, align 8, !tbaa !50
  %18 = load i64, ptr %4, align 8, !tbaa !50
  store i64 %18, ptr %1, align 8
  store i32 1, ptr %3, align 4
  call void @llvm.lifetime.end.p0(i64 8, ptr %4) #5
  br label %19

19:                                               ; preds = %8, %7
  call void @llvm.lifetime.end.p0(i64 16, ptr %2) #5
  %20 = load i64, ptr %1, align 8
  ret i64 %20
}

; Function Attrs: nounwind uwtable
define internal ptr @cuddBddTransferRecur(ptr noundef %0, ptr noundef %1, ptr noundef %2, ptr noundef %3) #0 {
  %5 = alloca ptr, align 8
  %6 = alloca ptr, align 8
  %7 = alloca ptr, align 8
  %8 = alloca ptr, align 8
  %9 = alloca ptr, align 8
  %10 = alloca ptr, align 8
  %11 = alloca ptr, align 8
  %12 = alloca ptr, align 8
  %13 = alloca ptr, align 8
  %14 = alloca ptr, align 8
  %15 = alloca ptr, align 8
  %16 = alloca ptr, align 8
  %17 = alloca ptr, align 8
  %18 = alloca i32, align 4
  %19 = alloca i32, align 4
  %20 = alloca i32, align 4
  store ptr %0, ptr %6, align 8, !tbaa !3
  store ptr %1, ptr %7, align 8, !tbaa !3
  store ptr %2, ptr %8, align 8, !tbaa !8
  store ptr %3, ptr %9, align 8, !tbaa !42
  call void @llvm.lifetime.start.p0(i64 8, ptr %10) #5
  call void @llvm.lifetime.start.p0(i64 8, ptr %11) #5
  call void @llvm.lifetime.start.p0(i64 8, ptr %12) #5
  call void @llvm.lifetime.start.p0(i64 8, ptr %13) #5
  call void @llvm.lifetime.start.p0(i64 8, ptr %14) #5
  call void @llvm.lifetime.start.p0(i64 8, ptr %15) #5
  call void @llvm.lifetime.start.p0(i64 8, ptr %16) #5
  call void @llvm.lifetime.start.p0(i64 8, ptr %17) #5
  call void @llvm.lifetime.start.p0(i64 4, ptr %18) #5
  call void @llvm.lifetime.start.p0(i64 4, ptr %19) #5
  store i32 0, ptr %19, align 4, !tbaa !34
  %21 = load ptr, ptr %7, align 8, !tbaa !3
  %22 = getelementptr inbounds nuw %struct.DdManager, ptr %21, i32 0, i32 1
  %23 = load ptr, ptr %22, align 8, !tbaa !32
  store ptr %23, ptr %16, align 8, !tbaa !8
  %24 = load ptr, ptr %8, align 8, !tbaa !8
  %25 = ptrtoint ptr %24 to i64
  %26 = and i64 %25, 1
  %27 = trunc i64 %26 to i32
  store i32 %27, ptr %19, align 4, !tbaa !34
  %28 = load ptr, ptr %8, align 8, !tbaa !8
  %29 = ptrtoint ptr %28 to i64
  %30 = and i64 %29, -2
  %31 = inttoptr i64 %30 to ptr
  %32 = getelementptr inbounds nuw %struct.DdNode, ptr %31, i32 0, i32 0
  %33 = load i32, ptr %32, align 8, !tbaa !31
  %34 = icmp eq i32 %33, 2147483647
  br i1 %34, label %35, label %42

35:                                               ; preds = %4
  %36 = load ptr, ptr %16, align 8, !tbaa !8
  %37 = ptrtoint ptr %36 to i64
  %38 = load i32, ptr %19, align 4, !tbaa !34
  %39 = sext i32 %38 to i64
  %40 = xor i64 %37, %39
  %41 = inttoptr i64 %40 to ptr
  store ptr %41, ptr %5, align 8
  store i32 1, ptr %20, align 4
  br label %186

42:                                               ; preds = %4
  %43 = load ptr, ptr %8, align 8, !tbaa !8
  %44 = ptrtoint ptr %43 to i64
  %45 = load i32, ptr %19, align 4, !tbaa !34
  %46 = sext i32 %45 to i64
  %47 = xor i64 %44, %46
  %48 = inttoptr i64 %47 to ptr
  store ptr %48, ptr %8, align 8, !tbaa !8
  %49 = load ptr, ptr %9, align 8, !tbaa !42
  %50 = load ptr, ptr %8, align 8, !tbaa !8
  %51 = call i32 @st__lookup(ptr noundef %49, ptr noundef %50, ptr noundef %15)
  %52 = icmp ne i32 %51, 0
  br i1 %52, label %53, label %60

53:                                               ; preds = %42
  %54 = load ptr, ptr %15, align 8, !tbaa !8
  %55 = ptrtoint ptr %54 to i64
  %56 = load i32, ptr %19, align 4, !tbaa !34
  %57 = sext i32 %56 to i64
  %58 = xor i64 %55, %57
  %59 = inttoptr i64 %58 to ptr
  store ptr %59, ptr %5, align 8
  store i32 1, ptr %20, align 4
  br label %186

60:                                               ; preds = %42
  %61 = load ptr, ptr %6, align 8, !tbaa !3
  %62 = getelementptr inbounds nuw %struct.DdManager, ptr %61, i32 0, i32 102
  %63 = load i64, ptr %62, align 8, !tbaa !47
  %64 = icmp ne i64 %63, 0
  br i1 %64, label %65, label %72

65:                                               ; preds = %60
  %66 = call i64 @Abc_Clock()
  %67 = load ptr, ptr %6, align 8, !tbaa !3
  %68 = getelementptr inbounds nuw %struct.DdManager, ptr %67, i32 0, i32 102
  %69 = load i64, ptr %68, align 8, !tbaa !47
  %70 = icmp sgt i64 %66, %69
  br i1 %70, label %71, label %72

71:                                               ; preds = %65
  store ptr null, ptr %5, align 8
  store i32 1, ptr %20, align 4
  br label %186

72:                                               ; preds = %65, %60
  %73 = load ptr, ptr %7, align 8, !tbaa !3
  %74 = getelementptr inbounds nuw %struct.DdManager, ptr %73, i32 0, i32 102
  %75 = load i64, ptr %74, align 8, !tbaa !47
  %76 = icmp ne i64 %75, 0
  br i1 %76, label %77, label %84

77:                                               ; preds = %72
  %78 = call i64 @Abc_Clock()
  %79 = load ptr, ptr %7, align 8, !tbaa !3
  %80 = getelementptr inbounds nuw %struct.DdManager, ptr %79, i32 0, i32 102
  %81 = load i64, ptr %80, align 8, !tbaa !47
  %82 = icmp sgt i64 %78, %81
  br i1 %82, label %83, label %84

83:                                               ; preds = %77
  store ptr null, ptr %5, align 8
  store i32 1, ptr %20, align 4
  br label %186

84:                                               ; preds = %77, %72
  %85 = load ptr, ptr %8, align 8, !tbaa !8
  %86 = getelementptr inbounds nuw %struct.DdNode, ptr %85, i32 0, i32 0
  %87 = load i32, ptr %86, align 8, !tbaa !31
  store i32 %87, ptr %18, align 4, !tbaa !34
  %88 = load ptr, ptr %8, align 8, !tbaa !8
  %89 = getelementptr inbounds nuw %struct.DdNode, ptr %88, i32 0, i32 3
  %90 = getelementptr inbounds nuw %struct.DdChildren, ptr %89, i32 0, i32 0
  %91 = load ptr, ptr %90, align 8, !tbaa !33
  store ptr %91, ptr %10, align 8, !tbaa !8
  %92 = load ptr, ptr %8, align 8, !tbaa !8
  %93 = getelementptr inbounds nuw %struct.DdNode, ptr %92, i32 0, i32 3
  %94 = getelementptr inbounds nuw %struct.DdChildren, ptr %93, i32 0, i32 1
  %95 = load ptr, ptr %94, align 8, !tbaa !33
  store ptr %95, ptr %11, align 8, !tbaa !8
  %96 = load ptr, ptr %6, align 8, !tbaa !3
  %97 = load ptr, ptr %7, align 8, !tbaa !3
  %98 = load ptr, ptr %10, align 8, !tbaa !8
  %99 = load ptr, ptr %9, align 8, !tbaa !42
  %100 = call ptr @cuddBddTransferRecur(ptr noundef %96, ptr noundef %97, ptr noundef %98, ptr noundef %99)
  store ptr %100, ptr %12, align 8, !tbaa !8
  %101 = load ptr, ptr %12, align 8, !tbaa !8
  %102 = icmp eq ptr %101, null
  br i1 %102, label %103, label %104

103:                                              ; preds = %84
  store ptr null, ptr %5, align 8
  store i32 1, ptr %20, align 4
  br label %186

104:                                              ; preds = %84
  %105 = load ptr, ptr %12, align 8, !tbaa !8
  %106 = ptrtoint ptr %105 to i64
  %107 = and i64 %106, -2
  %108 = inttoptr i64 %107 to ptr
  %109 = getelementptr inbounds nuw %struct.DdNode, ptr %108, i32 0, i32 1
  %110 = load i32, ptr %109, align 4, !tbaa !12
  %111 = add i32 %110, 1
  store i32 %111, ptr %109, align 4, !tbaa !12
  %112 = load ptr, ptr %6, align 8, !tbaa !3
  %113 = load ptr, ptr %7, align 8, !tbaa !3
  %114 = load ptr, ptr %11, align 8, !tbaa !8
  %115 = load ptr, ptr %9, align 8, !tbaa !42
  %116 = call ptr @cuddBddTransferRecur(ptr noundef %112, ptr noundef %113, ptr noundef %114, ptr noundef %115)
  store ptr %116, ptr %13, align 8, !tbaa !8
  %117 = load ptr, ptr %13, align 8, !tbaa !8
  %118 = icmp eq ptr %117, null
  br i1 %118, label %119, label %122

119:                                              ; preds = %104
  %120 = load ptr, ptr %7, align 8, !tbaa !3
  %121 = load ptr, ptr %12, align 8, !tbaa !8
  call void @Cudd_RecursiveDeref(ptr noundef %120, ptr noundef %121)
  store ptr null, ptr %5, align 8
  store i32 1, ptr %20, align 4
  br label %186

122:                                              ; preds = %104
  %123 = load ptr, ptr %13, align 8, !tbaa !8
  %124 = ptrtoint ptr %123 to i64
  %125 = and i64 %124, -2
  %126 = inttoptr i64 %125 to ptr
  %127 = getelementptr inbounds nuw %struct.DdNode, ptr %126, i32 0, i32 1
  %128 = load i32, ptr %127, align 4, !tbaa !12
  %129 = add i32 %128, 1
  store i32 %129, ptr %127, align 4, !tbaa !12
  %130 = load ptr, ptr %16, align 8, !tbaa !8
  %131 = ptrtoint ptr %130 to i64
  %132 = xor i64 %131, 1
  %133 = inttoptr i64 %132 to ptr
  store ptr %133, ptr %17, align 8, !tbaa !8
  %134 = load ptr, ptr %7, align 8, !tbaa !3
  %135 = load i32, ptr %18, align 4, !tbaa !34
  %136 = load ptr, ptr %16, align 8, !tbaa !8
  %137 = load ptr, ptr %17, align 8, !tbaa !8
  %138 = call ptr @cuddUniqueInter(ptr noundef %134, i32 noundef %135, ptr noundef %136, ptr noundef %137)
  store ptr %138, ptr %14, align 8, !tbaa !8
  %139 = load ptr, ptr %14, align 8, !tbaa !8
  %140 = icmp eq ptr %139, null
  br i1 %140, label %141, label %146

141:                                              ; preds = %122
  %142 = load ptr, ptr %7, align 8, !tbaa !3
  %143 = load ptr, ptr %12, align 8, !tbaa !8
  call void @Cudd_RecursiveDeref(ptr noundef %142, ptr noundef %143)
  %144 = load ptr, ptr %7, align 8, !tbaa !3
  %145 = load ptr, ptr %13, align 8, !tbaa !8
  call void @Cudd_RecursiveDeref(ptr noundef %144, ptr noundef %145)
  store ptr null, ptr %5, align 8
  store i32 1, ptr %20, align 4
  br label %186

146:                                              ; preds = %122
  %147 = load ptr, ptr %7, align 8, !tbaa !3
  %148 = load ptr, ptr %14, align 8, !tbaa !8
  %149 = load ptr, ptr %12, align 8, !tbaa !8
  %150 = load ptr, ptr %13, align 8, !tbaa !8
  %151 = call ptr @cuddBddIteRecur(ptr noundef %147, ptr noundef %148, ptr noundef %149, ptr noundef %150)
  store ptr %151, ptr %15, align 8, !tbaa !8
  %152 = load ptr, ptr %15, align 8, !tbaa !8
  %153 = icmp eq ptr %152, null
  br i1 %153, label %154, label %159

154:                                              ; preds = %146
  %155 = load ptr, ptr %7, align 8, !tbaa !3
  %156 = load ptr, ptr %12, align 8, !tbaa !8
  call void @Cudd_RecursiveDeref(ptr noundef %155, ptr noundef %156)
  %157 = load ptr, ptr %7, align 8, !tbaa !3
  %158 = load ptr, ptr %13, align 8, !tbaa !8
  call void @Cudd_RecursiveDeref(ptr noundef %157, ptr noundef %158)
  store ptr null, ptr %5, align 8
  store i32 1, ptr %20, align 4
  br label %186

159:                                              ; preds = %146
  %160 = load ptr, ptr %15, align 8, !tbaa !8
  %161 = ptrtoint ptr %160 to i64
  %162 = and i64 %161, -2
  %163 = inttoptr i64 %162 to ptr
  %164 = getelementptr inbounds nuw %struct.DdNode, ptr %163, i32 0, i32 1
  %165 = load i32, ptr %164, align 4, !tbaa !12
  %166 = add i32 %165, 1
  store i32 %166, ptr %164, align 4, !tbaa !12
  %167 = load ptr, ptr %7, align 8, !tbaa !3
  %168 = load ptr, ptr %12, align 8, !tbaa !8
  call void @Cudd_RecursiveDeref(ptr noundef %167, ptr noundef %168)
  %169 = load ptr, ptr %7, align 8, !tbaa !3
  %170 = load ptr, ptr %13, align 8, !tbaa !8
  call void @Cudd_RecursiveDeref(ptr noundef %169, ptr noundef %170)
  %171 = load ptr, ptr %9, align 8, !tbaa !42
  %172 = load ptr, ptr %8, align 8, !tbaa !8
  %173 = load ptr, ptr %15, align 8, !tbaa !8
  %174 = call i32 @st__add_direct(ptr noundef %171, ptr noundef %172, ptr noundef %173)
  %175 = icmp eq i32 %174, -10000
  br i1 %175, label %176, label %179

176:                                              ; preds = %159
  %177 = load ptr, ptr %7, align 8, !tbaa !3
  %178 = load ptr, ptr %15, align 8, !tbaa !8
  call void @Cudd_RecursiveDeref(ptr noundef %177, ptr noundef %178)
  store ptr null, ptr %5, align 8
  store i32 1, ptr %20, align 4
  br label %186

179:                                              ; preds = %159
  %180 = load ptr, ptr %15, align 8, !tbaa !8
  %181 = ptrtoint ptr %180 to i64
  %182 = load i32, ptr %19, align 4, !tbaa !34
  %183 = sext i32 %182 to i64
  %184 = xor i64 %181, %183
  %185 = inttoptr i64 %184 to ptr
  store ptr %185, ptr %5, align 8
  store i32 1, ptr %20, align 4
  br label %186

186:                                              ; preds = %179, %176, %154, %141, %119, %103, %83, %71, %53, %35
  call void @llvm.lifetime.end.p0(i64 4, ptr %19) #5
  call void @llvm.lifetime.end.p0(i64 4, ptr %18) #5
  call void @llvm.lifetime.end.p0(i64 8, ptr %17) #5
  call void @llvm.lifetime.end.p0(i64 8, ptr %16) #5
  call void @llvm.lifetime.end.p0(i64 8, ptr %15) #5
  call void @llvm.lifetime.end.p0(i64 8, ptr %14) #5
  call void @llvm.lifetime.end.p0(i64 8, ptr %13) #5
  call void @llvm.lifetime.end.p0(i64 8, ptr %12) #5
  call void @llvm.lifetime.end.p0(i64 8, ptr %11) #5
  call void @llvm.lifetime.end.p0(i64 8, ptr %10) #5
  %187 = load ptr, ptr %5, align 8
  ret ptr %187
}