; Function Attrs: nounwind uwtable
define internal fastcc ptr @cuddBddTransferRecur(ptr noundef %0, ptr noundef %1, ptr noundef %2, ptr noundef nonnull %3) unnamed_addr #0 {
  %5 = alloca %struct.timespec, align 8
  %6 = alloca %struct.timespec, align 8
  %7 = alloca ptr, align 8
  call void @llvm.lifetime.start.p0(i64 8, ptr nonnull %7) #4
  %8 = getelementptr inbounds nuw i8, ptr %1, i64 40
  %9 = load ptr, ptr %8, align 8, !tbaa !28
  %10 = ptrtoint ptr %2 to i64
  %11 = and i64 %10, -2
  %12 = inttoptr i64 %11 to ptr
  %13 = load i32, ptr %12, align 8, !tbaa !27
  %14 = icmp eq i32 %13, 2147483647
  %15 = and i64 %10, 1
  br i1 %14, label %16, label %20

16:                                               ; preds = %4
  %17 = ptrtoint ptr %9 to i64
  %18 = xor i64 %15, %17
  %19 = inttoptr i64 %18 to ptr
  br label %108

20:                                               ; preds = %4
  %21 = call i32 @st__lookup(ptr noundef nonnull %3, ptr noundef nonnull %12, ptr noundef nonnull %7) #4
  %.not = icmp eq i32 %21, 0
  br i1 %.not, label %27, label %22

22:                                               ; preds = %20
  %23 = load ptr, ptr %7, align 8, !tbaa !37
  %24 = ptrtoint ptr %23 to i64
  %25 = xor i64 %15, %24
  %26 = inttoptr i64 %25 to ptr
  br label %108

27:                                               ; preds = %20
  %28 = getelementptr inbounds nuw i8, ptr %0, i64 752
  %29 = load i64, ptr %28, align 8, !tbaa !39
  %.not61 = icmp eq i64 %29, 0
  br i1 %.not61, label %42, label %30

30:                                               ; preds = %27
  call void @llvm.lifetime.start.p0(i64 16, ptr nonnull %6) #4
  %31 = call i32 @clock_gettime(i32 noundef 1, ptr noundef nonnull %6) #4
  %32 = icmp slt i32 %31, 0
  br i1 %32, label %Abc_Clock.exit, label %33

33:                                               ; preds = %30
  %34 = load i64, ptr %6, align 8, !tbaa !40
  %35 = mul nsw i64 %34, 1000000
  %36 = getelementptr inbounds nuw i8, ptr %6, i64 8
  %37 = load i64, ptr %36, align 8, !tbaa !42
  %38 = sdiv i64 %37, 1000
  %39 = add nsw i64 %38, %35
  br label %Abc_Clock.exit

Abc_Clock.exit:                                   ; preds = %30, %33
  %.0.i = phi i64 [ %39, %33 ], [ -1, %30 ]
  call void @llvm.lifetime.end.p0(i64 16, ptr nonnull %6) #4
  %40 = load i64, ptr %28, align 8, !tbaa !39
  %41 = icmp sgt i64 %.0.i, %40
  br i1 %41, label %108, label %42

42:                                               ; preds = %Abc_Clock.exit, %27
  %43 = getelementptr inbounds nuw i8, ptr %1, i64 752
  %44 = load i64, ptr %43, align 8, !tbaa !39
  %.not62 = icmp eq i64 %44, 0
  br i1 %.not62, label %57, label %45

45:                                               ; preds = %42
  call void @llvm.lifetime.start.p0(i64 16, ptr nonnull %5) #4
  %46 = call i32 @clock_gettime(i32 noundef 1, ptr noundef nonnull %5) #4
  %47 = icmp slt i32 %46, 0
  br i1 %47, label %Abc_Clock.exit64, label %48

48:                                               ; preds = %45
  %49 = load i64, ptr %5, align 8, !tbaa !40
  %50 = mul nsw i64 %49, 1000000
  %51 = getelementptr inbounds nuw i8, ptr %5, i64 8
  %52 = load i64, ptr %51, align 8, !tbaa !42
  %53 = sdiv i64 %52, 1000
  %54 = add nsw i64 %53, %50
  br label %Abc_Clock.exit64

Abc_Clock.exit64:                                 ; preds = %45, %48
  %.0.i63 = phi i64 [ %54, %48 ], [ -1, %45 ]
  call void @llvm.lifetime.end.p0(i64 16, ptr nonnull %5) #4
  %55 = load i64, ptr %43, align 8, !tbaa !39
  %56 = icmp sgt i64 %.0.i63, %55
  br i1 %56, label %108, label %57

57:                                               ; preds = %Abc_Clock.exit64, %42
  %58 = load i32, ptr %12, align 8, !tbaa !27
  %59 = getelementptr inbounds nuw i8, ptr %12, i64 16
  %60 = load ptr, ptr %59, align 8, !tbaa !29
  %61 = getelementptr inbounds nuw i8, ptr %12, i64 24
  %62 = load ptr, ptr %61, align 8, !tbaa !29
  %63 = call fastcc ptr @cuddBddTransferRecur(ptr noundef nonnull %0, ptr noundef nonnull %1, ptr noundef %60, ptr noundef %3)
  %64 = icmp eq ptr %63, null
  br i1 %64, label %108, label %65

65:                                               ; preds = %57
  %66 = ptrtoint ptr %63 to i64
  %67 = and i64 %66, -2
  %68 = inttoptr i64 %67 to ptr
  %69 = getelementptr inbounds nuw i8, ptr %68, i64 4
  %70 = load i32, ptr %69, align 4, !tbaa !3
  %71 = add i32 %70, 1
  store i32 %71, ptr %69, align 4, !tbaa !3
  %72 = call fastcc ptr @cuddBddTransferRecur(ptr noundef nonnull %0, ptr noundef nonnull %1, ptr noundef %62, ptr noundef %3)
  %73 = icmp eq ptr %72, null
  br i1 %73, label %74, label %75

74:                                               ; preds = %65
  call void @Cudd_RecursiveDeref(ptr noundef nonnull %1, ptr noundef nonnull %63) #4
  br label %108

75:                                               ; preds = %65
  %76 = ptrtoint ptr %72 to i64
  %77 = and i64 %76, -2
  %78 = inttoptr i64 %77 to ptr
  %79 = getelementptr inbounds nuw i8, ptr %78, i64 4
  %80 = load i32, ptr %79, align 4, !tbaa !3
  %81 = add i32 %80, 1
  store i32 %81, ptr %79, align 4, !tbaa !3
  %82 = ptrtoint ptr %9 to i64
  %83 = xor i64 %82, 1
  %84 = inttoptr i64 %83 to ptr
  %85 = call ptr @cuddUniqueInter(ptr noundef nonnull %1, i32 noundef %58, ptr noundef %9, ptr noundef %84) #4
  %86 = icmp eq ptr %85, null
  br i1 %86, label %87, label %88

87:                                               ; preds = %75
  call void @Cudd_RecursiveDeref(ptr noundef nonnull %1, ptr noundef nonnull %63) #4
  call void @Cudd_RecursiveDeref(ptr noundef nonnull %1, ptr noundef nonnull %72) #4
  br label %108

88:                                               ; preds = %75
  %89 = call ptr @cuddBddIteRecur(ptr noundef nonnull %1, ptr noundef nonnull %85, ptr noundef nonnull %63, ptr noundef nonnull %72) #4
  store ptr %89, ptr %7, align 8, !tbaa !37
  %90 = icmp eq ptr %89, null
  br i1 %90, label %91, label %92

91:                                               ; preds = %88
  call void @Cudd_RecursiveDeref(ptr noundef nonnull %1, ptr noundef nonnull %63) #4
  call void @Cudd_RecursiveDeref(ptr noundef nonnull %1, ptr noundef nonnull %72) #4
  br label %108

92:                                               ; preds = %88
  %93 = ptrtoint ptr %89 to i64
  %94 = and i64 %93, -2
  %95 = inttoptr i64 %94 to ptr
  %96 = getelementptr inbounds nuw i8, ptr %95, i64 4
  %97 = load i32, ptr %96, align 4, !tbaa !3
  %98 = add i32 %97, 1
  store i32 %98, ptr %96, align 4, !tbaa !3
  call void @Cudd_RecursiveDeref(ptr noundef nonnull %1, ptr noundef nonnull %63) #4
  call void @Cudd_RecursiveDeref(ptr noundef nonnull %1, ptr noundef nonnull %72) #4
  %99 = load ptr, ptr %7, align 8, !tbaa !37
  %100 = call i32 @st__add_direct(ptr noundef nonnull %3, ptr noundef nonnull %12, ptr noundef %99) #4
  %101 = icmp eq i32 %100, -10000
  %102 = load ptr, ptr %7, align 8, !tbaa !37
  br i1 %101, label %103, label %104

103:                                              ; preds = %92
  call void @Cudd_RecursiveDeref(ptr noundef nonnull %1, ptr noundef %102) #4
  br label %108

104:                                              ; preds = %92
  %105 = ptrtoint ptr %102 to i64
  %106 = xor i64 %15, %105
  %107 = inttoptr i64 %106 to ptr
  br label %108

108:                                              ; preds = %57, %Abc_Clock.exit64, %Abc_Clock.exit, %104, %103, %91, %87, %74, %22, %16
  %.0 = phi ptr [ %19, %16 ], [ %26, %22 ], [ null, %74 ], [ null, %87 ], [ null, %91 ], [ null, %103 ], [ %107, %104 ], [ null, %Abc_Clock.exit ], [ null, %Abc_Clock.exit64 ], [ null, %57 ]
  call void @llvm.lifetime.end.p0(i64 8, ptr nonnull %7) #4
  ret ptr %.0
}